target datalayout = "e-m:e-p270:32:32-p271:32:32-p272:64:64-i64:64-i128:128-f80:128-n8:16:32:64-S128"
target triple = "x86_64-pc-linux-gnu"

@.str.8 = private unnamed_addr constant [52 x i8] c"bad %s format: element '%s' does not start with '('\00", align 1
@.str.9 = private unnamed_addr constant [48 x i8] c"bad %s format: element '%s' does not end in ')'\00", align 1
@.str.10 = private unnamed_addr constant [22 x i8] c"bad %s format: %%%.*s\00", align 1

; Function Attrs: nounwind uwtable
define dso_local void @strbuf_expand_bad_format(ptr noundef %0, ptr noundef %1) #0 {
  %3 = alloca ptr, align 8
  %4 = alloca ptr, align 8
  %5 = alloca ptr, align 8
  store ptr %0, ptr %3, align 8, !tbaa !4
  store ptr %1, ptr %4, align 8, !tbaa !4
  call void @llvm.lifetime.start.p0(i64 8, ptr %5) #11
  %6 = load ptr, ptr %3, align 8, !tbaa !4
  %7 = load i8, ptr %6, align 1, !tbaa !9
  %8 = sext i8 %7 to i32
  %9 = icmp ne i32 %8, 40
  br i1 %9, label %10, label %14

10:                                               ; preds = %2
  %11 = call ptr @_(ptr noundef @.str.8)
  %12 = load ptr, ptr %4, align 8, !tbaa !4
  %13 = load ptr, ptr %3, align 8, !tbaa !4
  call void (ptr, ...) @die(ptr noundef %11, ptr noundef %12, ptr noundef %13) #12
  unreachable

14:                                               ; preds = %2
  %15 = load ptr, ptr %3, align 8, !tbaa !4
  %16 = getelementptr inbounds i8, ptr %15, i64 1
  %17 = call ptr @strchr(ptr noundef %16, i32 noundef 41) #13
  store ptr %17, ptr %5, align 8, !tbaa !4
  %18 = load ptr, ptr %5, align 8, !tbaa !4
  %19 = icmp ne ptr %18, null
  br i1 %19, label %24, label %20

20:                                               ; preds = %14
  %21 = call ptr @_(ptr noundef @.str.9)
  %22 = load ptr, ptr %4, align 8, !tbaa !4
  %23 = load ptr, ptr %3, align 8, !tbaa !4
  call void (ptr, ...) @die(ptr noundef %21, ptr noundef %22, ptr noundef %23) #12
  unreachable

24:                                               ; preds = %14
  %25 = call ptr @_(ptr noundef @.str.10)
  %26 = load ptr, ptr %4, align 8, !tbaa !4
  %27 = load ptr, ptr %5, align 8, !tbaa !4
  %28 = load ptr, ptr %3, align 8, !tbaa !4
  %29 = ptrtoint ptr %27 to i64
  %30 = ptrtoint ptr %28 to i64
  %31 = sub i64 %29, %30
  %32 = add nsw i64 %31, 1
  %33 = trunc i64 %32 to i32
  %34 = load ptr, ptr %3, align 8, !tbaa !4
  call void (ptr, ...) @die(ptr noundef %25, ptr noundef %26, i32 noundef %33, ptr noundef %34) #12
  unreachable
}