; Function Attrs: noreturn nounwind uwtable
define dso_local void @strbuf_expand_bad_format(ptr noundef %0, ptr noundef %1) local_unnamed_addr #18 {
  %3 = load i8, ptr %0, align 1, !tbaa !4
  %.not = icmp eq i8 %3, 40
  br i1 %.not, label %6, label %4

4:                                                ; preds = %2
  %5 = tail call fastcc ptr @_(ptr noundef nonnull @.str.8)
  tail call void (ptr, ...) @die(ptr noundef %5, ptr noundef %1, ptr noundef nonnull %0) #24
  unreachable

6:                                                ; preds = %2
  %7 = getelementptr inbounds nuw i8, ptr %0, i64 1
  %8 = tail call ptr @strchr(ptr noundef nonnull dereferenceable(1) %7, i32 noundef 41) #26
  %.not11 = icmp eq ptr %8, null
  br i1 %.not11, label %9, label %11

9:                                                ; preds = %6
  %10 = tail call fastcc ptr @_(ptr noundef nonnull @.str.9)
  tail call void (ptr, ...) @die(ptr noundef %10, ptr noundef %1, ptr noundef nonnull %0) #24
  unreachable

11:                                               ; preds = %6
  %12 = tail call fastcc ptr @_(ptr noundef nonnull @.str.10)
  %13 = ptrtoint ptr %8 to i64
  %14 = ptrtoint ptr %0 to i64
  %15 = sub i64 %13, %14
  %16 = trunc i64 %15 to i32
  %17 = add i32 %16, 1
  tail call void (ptr, ...) @die(ptr noundef %12, ptr noundef %1, i32 noundef %17, ptr noundef nonnull %0) #24
  unreachable
}